target datalayout = "e-m:e-p270:32:32-p271:32:32-p272:64:64-i64:64-i128:128-f80:128-n8:16:32:64-S128"
target triple = "x86_64-unknown-linux-gnu"

%"class.google::protobuf::io::ZeroCopyInputStream" = type { ptr }
%"class.google::protobuf::io::ConcatenatingInputStream" = type { %"class.google::protobuf::io::ZeroCopyInputStream", ptr, i32, i64 }

; Function Attrs: mustprogress uwtable
define noundef zeroext i1 @_ZN6google8protobuf2io24ConcatenatingInputStream4NextEPPKvPi(ptr noundef nonnull align 8 dereferenceable(32) %this, ptr noundef %data, ptr noundef %size) unnamed_addr #4 align 2 {
entry:
  %retval = alloca i1, align 1
  %this.addr = alloca ptr, align 8
  %data.addr = alloca ptr, align 8
  %size.addr = alloca ptr, align 8
  store ptr %this, ptr %this.addr, align 8
  store ptr %data, ptr %data.addr, align 8
  store ptr %size, ptr %size.addr, align 8
  %this1 = load ptr, ptr %this.addr, align 8
  br label %while.cond

while.cond:                                       ; preds = %if.end, %entry
  %stream_count_ = getelementptr inbounds %"class.google::protobuf::io::ConcatenatingInputStream", ptr %this1, i32 0, i32 2
  %0 = load i32, ptr %stream_count_, align 8
  %cmp = icmp sgt i32 %0, 0
  br i1 %cmp, label %while.body, label %while.end

while.body:                                       ; preds = %while.cond
  %streams_ = getelementptr inbounds %"class.google::protobuf::io::ConcatenatingInputStream", ptr %this1, i32 0, i32 1
  %1 = load ptr, ptr %streams_, align 8
  %arrayidx = getelementptr inbounds ptr, ptr %1, i64 0
  %2 = load ptr, ptr %arrayidx, align 8
  %3 = load ptr, ptr %data.addr, align 8
  %4 = load ptr, ptr %size.addr, align 8
  %vtable = load ptr, ptr %2, align 8
  %vfn = getelementptr inbounds ptr, ptr %vtable, i64 2
  %5 = load ptr, ptr %vfn, align 8
  %call = call noundef zeroext i1 %5(ptr noundef nonnull align 8 dereferenceable(8) %2, ptr noundef %3, ptr noundef %4)
  br i1 %call, label %if.then, label %if.end

if.then:                                          ; preds = %while.body
  store i1 true, ptr %retval, align 1
  br label %return

if.end:                                           ; preds = %while.body
  %streams_2 = getelementptr inbounds %"class.google::protobuf::io::ConcatenatingInputStream", ptr %this1, i32 0, i32 1
  %6 = load ptr, ptr %streams_2, align 8
  %arrayidx3 = getelementptr inbounds ptr, ptr %6, i64 0
  %7 = load ptr, ptr %arrayidx3, align 8
  %vtable4 = load ptr, ptr %7, align 8
  %vfn5 = getelementptr inbounds ptr, ptr %vtable4, i64 5
  %8 = load ptr, ptr %vfn5, align 8
  %call6 = call noundef i64 %8(ptr noundef nonnull align 8 dereferenceable(8) %7)
  %bytes_retired_ = getelementptr inbounds %"class.google::protobuf::io::ConcatenatingInputStream", ptr %this1, i32 0, i32 3
  %9 = load i64, ptr %bytes_retired_, align 8
  %add = add nsw i64 %9, %call6
  store i64 %add, ptr %bytes_retired_, align 8
  %streams_7 = getelementptr inbounds %"class.google::protobuf::io::ConcatenatingInputStream", ptr %this1, i32 0, i32 1
  %10 = load ptr, ptr %streams_7, align 8
  %incdec.ptr = getelementptr inbounds ptr, ptr %10, i32 1
  store ptr %incdec.ptr, ptr %streams_7, align 8
  %stream_count_8 = getelementptr inbounds %"class.google::protobuf::io::ConcatenatingInputStream", ptr %this1, i32 0, i32 2
  %11 = load i32, ptr %stream_count_8, align 8
  %dec = add nsw i32 %11, -1
  store i32 %dec, ptr %stream_count_8, align 8
  br label %while.cond, !llvm.loop !9

while.end:                                        ; preds = %while.cond
  store i1 false, ptr %retval, align 1
  br label %return

return:                                           ; preds = %while.end, %if.then
  %12 = load i1, ptr %retval, align 1
  ret i1 %12
}