; Function Attrs: mustprogress uwtable
define noundef zeroext i1 @_ZN6google8protobuf2io24ConcatenatingInputStream4NextEPPKvPi(ptr nocapture noundef nonnull align 8 dereferenceable(32) %this, ptr noundef %data, ptr noundef %size) unnamed_addr #3 align 2 {
entry:
  %stream_count_ = getelementptr inbounds i8, ptr %this, i64 16
  %0 = load i32, ptr %stream_count_, align 8
  %cmp1 = icmp sgt i32 %0, 0
  br i1 %cmp1, label %while.body.lr.ph, label %return

while.body.lr.ph:                                 ; preds = %entry
  %streams_ = getelementptr inbounds i8, ptr %this, i64 8
  %bytes_retired_ = getelementptr inbounds i8, ptr %this, i64 24
  %.pre = load ptr, ptr %streams_, align 8
  br label %while.body

while.body:                                       ; preds = %while.body.lr.ph, %if.end
  %1 = phi ptr [ %.pre, %while.body.lr.ph ], [ %incdec.ptr, %if.end ]
  %2 = load ptr, ptr %1, align 8
  %vtable = load ptr, ptr %2, align 8
  %vfn = getelementptr inbounds i8, ptr %vtable, i64 16
  %3 = load ptr, ptr %vfn, align 8
  %call = tail call noundef zeroext i1 %3(ptr noundef nonnull align 8 dereferenceable(8) %2, ptr noundef %data, ptr noundef %size)
  br i1 %call, label %return, label %if.end

if.end:                                           ; preds = %while.body
  %4 = load ptr, ptr %streams_, align 8
  %5 = load ptr, ptr %4, align 8
  %vtable4 = load ptr, ptr %5, align 8
  %vfn5 = getelementptr inbounds i8, ptr %vtable4, i64 40
  %6 = load ptr, ptr %vfn5, align 8
  %call6 = tail call noundef i64 %6(ptr noundef nonnull align 8 dereferenceable(8) %5)
  %7 = load i64, ptr %bytes_retired_, align 8
  %add = add nsw i64 %7, %call6
  store i64 %add, ptr %bytes_retired_, align 8
  %8 = load ptr, ptr %streams_, align 8
  %incdec.ptr = getelementptr inbounds i8, ptr %8, i64 8
  store ptr %incdec.ptr, ptr %streams_, align 8
  %9 = load i32, ptr %stream_count_, align 8
  %dec = add nsw i32 %9, -1
  store i32 %dec, ptr %stream_count_, align 8
  %cmp = icmp sgt i32 %9, 1
  br i1 %cmp, label %while.body, label %return, !llvm.loop !9

return:                                           ; preds = %while.body, %if.end, %entry
  %cmp.lcssa = phi i1 [ false, %entry ], [ %call, %if.end ], [ %call, %while.body ]
  ret i1 %cmp.lcssa
}